#include <math.h>
#include <stdio.h>
#include <stdlib.h>
#include <string.h>

int main(){
	int a,i,sum,sun,x;
	i=1;
	sum=0;
	scanf("%d",&a);
	while(i<=a){
	sum+=i*i;
	i++;
	}

sun=0;
while(a>0){
	if((a%7==0)||(a/10==7)||(a%10==7)){
		sun+=a*a;
	a--;}
	else a--;}
x=sum-sun;
	printf("%d",x);
	return 0;

}