; ModuleID = '30/622.c'
source_filename = "30/622.c"
target datalayout = "e-m:e-p270:32:32-p271:32:32-p272:64:64-i64:64-f80:128-n8:16:32:64-S128"
target triple = "x86_64-pc-linux-gnu"

@.str = private unnamed_addr constant [3 x i8] c"%d\00", align 1

; Function Attrs: noinline nounwind uwtable
define dso_local i32 @main() #0 {
  %1 = alloca i32, align 4
  %2 = alloca i32, align 4
  %3 = alloca i32, align 4
  %4 = alloca i32, align 4
  %5 = alloca i32, align 4
  %6 = alloca i32, align 4
  store i32 0, i32* %1, align 4
  store i32 1, i32* %3, align 4
  store i32 0, i32* %4, align 4
  %7 = call i32 (i8*, ...) @__isoc99_scanf(i8* getelementptr inbounds ([3 x i8], [3 x i8]* @.str, i64 0, i64 0), i32* %2)
  br label %8

8:                                                ; preds = %12, %0
  %9 = load i32, i32* %3, align 4
  %10 = load i32, i32* %2, align 4
  %11 = icmp sle i32 %9, %10
  br i1 %11, label %12, label %20

12:                                               ; preds = %8
  %13 = load i32, i32* %3, align 4
  %14 = load i32, i32* %3, align 4
  %15 = mul nsw i32 %13, %14
  %16 = load i32, i32* %4, align 4
  %17 = add nsw i32 %16, %15
  store i32 %17, i32* %4, align 4
  %18 = load i32, i32* %3, align 4
  %19 = add nsw i32 %18, 1
  store i32 %19, i32* %3, align 4
  br label %8

20:                                               ; preds = %8
  store i32 0, i32* %5, align 4
  br label %21

21:                                               ; preds = %47, %20
  %22 = load i32, i32* %2, align 4
  %23 = icmp sgt i32 %22, 0
  br i1 %23, label %24, label %48

24:                                               ; preds = %21
  %25 = load i32, i32* %2, align 4
  %26 = srem i32 %25, 7
  %27 = icmp eq i32 %26, 0
  br i1 %27, label %36, label %28

28:                                               ; preds = %24
  %29 = load i32, i32* %2, align 4
  %30 = sdiv i32 %29, 10
  %31 = icmp eq i32 %30, 7
  br i1 %31, label %36, label %32

32:                                               ; preds = %28
  %33 = load i32, i32* %2, align 4
  %34 = srem i32 %33, 10
  %35 = icmp eq i32 %34, 7
  br i1 %35, label %36, label %44

36:                                               ; preds = %32, %28, %24
  %37 = load i32, i32* %2, align 4
  %38 = load i32, i32* %2, align 4
  %39 = mul nsw i32 %37, %38
  %40 = load i32, i32* %5, align 4
  %41 = add nsw i32 %40, %39
  store i32 %41, i32* %5, align 4
  %42 = load i32, i32* %2, align 4
  %43 = add nsw i32 %42, -1
  store i32 %43, i32* %2, align 4
  br label %47

44:                                               ; preds = %32
  %45 = load i32, i32* %2, align 4
  %46 = add nsw i32 %45, -1
  store i32 %46, i32* %2, align 4
  br label %47

47:                                               ; preds = %44, %36
  br label %21

48:                                               ; preds = %21
  %49 = load i32, i32* %4, align 4
  %50 = load i32, i32* %5, align 4
  %51 = sub nsw i32 %49, %50
  store i32 %51, i32* %6, align 4
  %52 = load i32, i32* %6, align 4
  %53 = call i32 (i8*, ...) @printf(i8* getelementptr inbounds ([3 x i8], [3 x i8]* @.str, i64 0, i64 0), i32 %52)
  ret i32 0
}

declare dso_local i32 @__isoc99_scanf(i8*, ...) #1

declare dso_local i32 @printf(i8*, ...) #1


!llvm.module.flags = !{!0}
!llvm.ident = !{!1}

!0 = !{i32 1, !"wchar_size", i32 4}
!1 = !{!"clang version 10.0.0-4ubuntu1 "}
